; Function Attrs: mustprogress uwtable
define void @_ZN17grpc_event_engine12experimental17Epoll1EventHandle14ShutdownHandleEN4absl12lts_202308026StatusE(ptr noundef nonnull align 8 dereferenceable(80) %this, ptr nocapture noundef readonly %why) unnamed_addr #4 align 2 personality ptr @__gxx_personality_v0 {
entry:
  %agg.tmp = alloca %"class.absl::lts_20230802::Status", align 8
  %mu_ = getelementptr inbounds i8, ptr %this, i64 8
  tail call void @_ZN4absl12lts_202308025Mutex4LockEv(ptr noundef nonnull align 8 dereferenceable(8) %mu_)
  %0 = load i64, ptr %why, align 8
  store i64 %0, ptr %agg.tmp, align 8
  %and.i.i.i = and i64 %0, 1
  %cmp.i.i.i = icmp eq i64 %and.i.i.i, 0
  br i1 %cmp.i.i.i, label %invoke.cont, label %if.then.i.i

if.then.i.i:                                      ; preds = %entry
  %sub.i.i.i = add nsw i64 %0, -1
  %1 = inttoptr i64 %sub.i.i.i to ptr
  %2 = atomicrmw add ptr %1, i32 1 monotonic, align 4
  br label %invoke.cont

invoke.cont:                                      ; preds = %if.then.i.i, %entry
  invoke void @_ZN17grpc_event_engine12experimental17Epoll1EventHandle22HandleShutdownInternalEN4absl12lts_202308026StatusEb(ptr noundef nonnull align 8 dereferenceable(80) %this, ptr noundef nonnull %agg.tmp, i1 noundef zeroext false)
          to label %invoke.cont3 unwind label %lpad2

invoke.cont3:                                     ; preds = %invoke.cont
  %3 = load i64, ptr %agg.tmp, align 8
  %and.i.i.i2 = and i64 %3, 1
  %cmp.i.i.i3 = icmp eq i64 %and.i.i.i2, 0
  br i1 %cmp.i.i.i3, label %_ZN4absl12lts_202308026StatusD2Ev.exit, label %if.then.i.i4

if.then.i.i4:                                     ; preds = %invoke.cont3
  invoke void @_ZN4absl12lts_202308026Status15UnrefNonInlinedEm(i64 noundef %3)
          to label %_ZN4absl12lts_202308026StatusD2Ev.exit unwind label %terminate.lpad.i

terminate.lpad.i:                                 ; preds = %if.then.i.i4
  %4 = landingpad { ptr, i32 }
          catch ptr null
  %5 = extractvalue { ptr, i32 } %4, 0
  call void @__clang_call_terminate(ptr %5) #19
  unreachable

_ZN4absl12lts_202308026StatusD2Ev.exit:           ; preds = %invoke.cont3, %if.then.i.i4
  invoke void @_ZN4absl12lts_202308025Mutex6UnlockEv(ptr noundef nonnull align 8 dereferenceable(8) %mu_)
          to label %_ZN4absl12lts_202308029MutexLockD2Ev.exit unwind label %terminate.lpad.i5

terminate.lpad.i5:                                ; preds = %_ZN4absl12lts_202308026StatusD2Ev.exit
  %6 = landingpad { ptr, i32 }
          catch ptr null
  %7 = extractvalue { ptr, i32 } %6, 0
  call void @__clang_call_terminate(ptr %7) #19
  unreachable

_ZN4absl12lts_202308029MutexLockD2Ev.exit:        ; preds = %_ZN4absl12lts_202308026StatusD2Ev.exit
  ret void

lpad2:                                            ; preds = %invoke.cont
  %8 = landingpad { ptr, i32 }
          cleanup
  call void @_ZN4absl12lts_202308026StatusD2Ev(ptr noundef nonnull align 8 dereferenceable(8) %agg.tmp) #20
  invoke void @_ZN4absl12lts_202308025Mutex6UnlockEv(ptr noundef nonnull align 8 dereferenceable(8) %mu_)
          to label %_ZN4absl12lts_202308029MutexLockD2Ev.exit7 unwind label %terminate.lpad.i6

terminate.lpad.i6:                                ; preds = %lpad2
  %9 = landingpad { ptr, i32 }
          catch ptr null
  %10 = extractvalue { ptr, i32 } %9, 0
  call void @__clang_call_terminate(ptr %10) #19
  unreachable

_ZN4absl12lts_202308029MutexLockD2Ev.exit7:       ; preds = %lpad2
  resume { ptr, i32 } %8
}